target datalayout = "e-m:e-p270:32:32-p271:32:32-p272:64:64-i64:64-i128:128-f80:128-n8:16:32:64-S128"
target triple = "x86_64-pc-linux-gnu"

%struct.If_Box_t_ = type { ptr, i8, i8, i8, i8, i32, i32, i32, ptr }
%struct.If_LibBox_t_ = type { i32, ptr }
%struct.Vec_Ptr_t_ = type { i32, i32, ptr }

@.str.10 = private unnamed_addr constant [37 x i8] c"# Box library written by ABC on %s.\0A\00", align 1
@.str.11 = private unnamed_addr constant [30 x i8] c"# <Name> <ID> <Type> <I> <O>\0A\00", align 1
@.str.12 = private unnamed_addr constant [16 x i8] c"%s %d %d %d %d\0A\00", align 1
@.str.13 = private unnamed_addr constant [7 x i8] c"    - \00", align 1
@.str.14 = private unnamed_addr constant [5 x i8] c"%5d \00", align 1
@.str.15 = private unnamed_addr constant [2 x i8] c"\0A\00", align 1

; Function Attrs: inlinehint nounwind uwtable
define internal ptr @Vec_PtrEntry(ptr noundef %0, i32 noundef %1) #4 {
  %3 = alloca ptr, align 8
  %4 = alloca i32, align 4
  store ptr %0, ptr %3, align 8, !tbaa !27
  store i32 %1, ptr %4, align 4, !tbaa !8
  %5 = load ptr, ptr %3, align 8, !tbaa !27
  %6 = getelementptr inbounds nuw %struct.Vec_Ptr_t_, ptr %5, i32 0, i32 2
  %7 = load ptr, ptr %6, align 8, !tbaa !31
  %8 = load i32, ptr %4, align 4, !tbaa !8
  %9 = sext i32 %8 to i64
  %10 = getelementptr inbounds ptr, ptr %7, i64 %9
  %11 = load ptr, ptr %10, align 8, !tbaa !34
  ret ptr %11
}

; Function Attrs: inlinehint nounwind uwtable
define internal i32 @Vec_PtrSize(ptr noundef %0) #4 {
  %2 = alloca ptr, align 8
  store ptr %0, ptr %2, align 8, !tbaa !27
  %3 = load ptr, ptr %2, align 8, !tbaa !27
  %4 = getelementptr inbounds nuw %struct.Vec_Ptr_t_, ptr %3, i32 0, i32 1
  %5 = load i32, ptr %4, align 4, !tbaa !28
  ret i32 %5
}

; Function Attrs: nounwind uwtable
define void @If_LibBoxPrint(ptr noundef %0, ptr noundef %1) #0 {
  %3 = alloca ptr, align 8
  %4 = alloca ptr, align 8
  %5 = alloca ptr, align 8
  %6 = alloca i32, align 4
  %7 = alloca i32, align 4
  %8 = alloca i32, align 4
  store ptr %0, ptr %3, align 8, !tbaa !38
  store ptr %1, ptr %4, align 8, !tbaa !22
  call void @llvm.lifetime.start.p0(i64 8, ptr %5) #10
  call void @llvm.lifetime.start.p0(i64 4, ptr %6) #10
  call void @llvm.lifetime.start.p0(i64 4, ptr %7) #10
  call void @llvm.lifetime.start.p0(i64 4, ptr %8) #10
  %9 = load ptr, ptr %3, align 8, !tbaa !38
  %10 = call ptr (...) @Extra_TimeStamp()
  %11 = call i32 (ptr, ptr, ...) @fprintf(ptr noundef %9, ptr noundef @.str.10, ptr noundef %10) #10
  %12 = load ptr, ptr %3, align 8, !tbaa !38
  %13 = call i32 (ptr, ptr, ...) @fprintf(ptr noundef %12, ptr noundef @.str.11) #10
  store i32 0, ptr %6, align 4, !tbaa !8
  br label %14

14:                                               ; preds = %112, %2
  %15 = load i32, ptr %6, align 4, !tbaa !8
  %16 = load ptr, ptr %4, align 8, !tbaa !22
  %17 = getelementptr inbounds nuw %struct.If_LibBox_t_, ptr %16, i32 0, i32 1
  %18 = load ptr, ptr %17, align 8, !tbaa !24
  %19 = call i32 @Vec_PtrSize(ptr noundef %18)
  %20 = icmp slt i32 %15, %19
  br i1 %20, label %21, label %27

21:                                               ; preds = %14
  %22 = load ptr, ptr %4, align 8, !tbaa !22
  %23 = getelementptr inbounds nuw %struct.If_LibBox_t_, ptr %22, i32 0, i32 1
  %24 = load ptr, ptr %23, align 8, !tbaa !24
  %25 = load i32, ptr %6, align 4, !tbaa !8
  %26 = call ptr @Vec_PtrEntry(ptr noundef %24, i32 noundef %25)
  store ptr %26, ptr %5, align 8, !tbaa !10
  br label %27

27:                                               ; preds = %21, %14
  %28 = phi i1 [ false, %14 ], [ true, %21 ]
  br i1 %28, label %29, label %115

29:                                               ; preds = %27
  %30 = load ptr, ptr %5, align 8, !tbaa !10
  %31 = icmp eq ptr %30, null
  br i1 %31, label %32, label %33

32:                                               ; preds = %29
  br label %111

33:                                               ; preds = %29
  %34 = load ptr, ptr %3, align 8, !tbaa !38
  %35 = load ptr, ptr %5, align 8, !tbaa !10
  %36 = getelementptr inbounds nuw %struct.If_Box_t_, ptr %35, i32 0, i32 0
  %37 = load ptr, ptr %36, align 8, !tbaa !12
  %38 = load ptr, ptr %5, align 8, !tbaa !10
  %39 = getelementptr inbounds nuw %struct.If_Box_t_, ptr %38, i32 0, i32 5
  %40 = load i32, ptr %39, align 4, !tbaa !15
  %41 = load ptr, ptr %5, align 8, !tbaa !10
  %42 = getelementptr inbounds nuw %struct.If_Box_t_, ptr %41, i32 0, i32 2
  %43 = load i8, ptr %42, align 1, !tbaa !17
  %44 = icmp ne i8 %43, 0
  %45 = xor i1 %44, true
  %46 = zext i1 %45 to i32
  %47 = load ptr, ptr %5, align 8, !tbaa !10
  %48 = getelementptr inbounds nuw %struct.If_Box_t_, ptr %47, i32 0, i32 6
  %49 = load i32, ptr %48, align 8, !tbaa !19
  %50 = load ptr, ptr %5, align 8, !tbaa !10
  %51 = getelementptr inbounds nuw %struct.If_Box_t_, ptr %50, i32 0, i32 7
  %52 = load i32, ptr %51, align 4, !tbaa !20
  %53 = call i32 (ptr, ptr, ...) @fprintf(ptr noundef %34, ptr noundef @.str.12, ptr noundef %37, i32 noundef %40, i32 noundef %46, i32 noundef %49, i32 noundef %52) #10
  store i32 0, ptr %7, align 4, !tbaa !8
  br label %54

54:                                               ; preds = %106, %33
  %55 = load i32, ptr %7, align 4, !tbaa !8
  %56 = load ptr, ptr %5, align 8, !tbaa !10
  %57 = getelementptr inbounds nuw %struct.If_Box_t_, ptr %56, i32 0, i32 7
  %58 = load i32, ptr %57, align 4, !tbaa !20
  %59 = icmp slt i32 %55, %58
  br i1 %59, label %60, label %110

60:                                               ; preds = %54
  store i32 0, ptr %8, align 4, !tbaa !8
  br label %61

61:                                               ; preds = %102, %60
  %62 = load i32, ptr %8, align 4, !tbaa !8
  %63 = load ptr, ptr %5, align 8, !tbaa !10
  %64 = getelementptr inbounds nuw %struct.If_Box_t_, ptr %63, i32 0, i32 6
  %65 = load i32, ptr %64, align 8, !tbaa !19
  %66 = icmp slt i32 %62, %65
  br i1 %66, label %67, label %105

67:                                               ; preds = %61
  %68 = load ptr, ptr %5, align 8, !tbaa !10
  %69 = getelementptr inbounds nuw %struct.If_Box_t_, ptr %68, i32 0, i32 8
  %70 = load ptr, ptr %69, align 8, !tbaa !21
  %71 = load i32, ptr %7, align 4, !tbaa !8
  %72 = load ptr, ptr %5, align 8, !tbaa !10
  %73 = getelementptr inbounds nuw %struct.If_Box_t_, ptr %72, i32 0, i32 6
  %74 = load i32, ptr %73, align 8, !tbaa !19
  %75 = mul nsw i32 %71, %74
  %76 = load i32, ptr %8, align 4, !tbaa !8
  %77 = add nsw i32 %75, %76
  %78 = sext i32 %77 to i64
  %79 = getelementptr inbounds i32, ptr %70, i64 %78
  %80 = load i32, ptr %79, align 4, !tbaa !8
  %81 = icmp eq i32 %80, -1000000000
  br i1 %81, label %82, label %85

82:                                               ; preds = %67
  %83 = load ptr, ptr %3, align 8, !tbaa !38
  %84 = call i32 (ptr, ptr, ...) @fprintf(ptr noundef %83, ptr noundef @.str.13) #10
  br label %101

85:                                               ; preds = %67
  %86 = load ptr, ptr %3, align 8, !tbaa !38
  %87 = load ptr, ptr %5, align 8, !tbaa !10
  %88 = getelementptr inbounds nuw %struct.If_Box_t_, ptr %87, i32 0, i32 8
  %89 = load ptr, ptr %88, align 8, !tbaa !21
  %90 = load i32, ptr %7, align 4, !tbaa !8
  %91 = load ptr, ptr %5, align 8, !tbaa !10
  %92 = getelementptr inbounds nuw %struct.If_Box_t_, ptr %91, i32 0, i32 6
  %93 = load i32, ptr %92, align 8, !tbaa !19
  %94 = mul nsw i32 %90, %93
  %95 = load i32, ptr %8, align 4, !tbaa !8
  %96 = add nsw i32 %94, %95
  %97 = sext i32 %96 to i64
  %98 = getelementptr inbounds i32, ptr %89, i64 %97
  %99 = load i32, ptr %98, align 4, !tbaa !8
  %100 = call i32 (ptr, ptr, ...) @fprintf(ptr noundef %86, ptr noundef @.str.14, i32 noundef %99) #10
  br label %101

101:                                              ; preds = %85, %82
  br label %102

102:                                              ; preds = %101
  %103 = load i32, ptr %8, align 4, !tbaa !8
  %104 = add nsw i32 %103, 1
  store i32 %104, ptr %8, align 4, !tbaa !8
  br label %61, !llvm.loop !49

105:                                              ; preds = %61
  br label %106

106:                                              ; preds = %105
  %107 = load i32, ptr %7, align 4, !tbaa !8
  %108 = add nsw i32 %107, 1
  store i32 %108, ptr %7, align 4, !tbaa !8
  %109 = call i32 (ptr, ...) @printf(ptr noundef @.str.15)
  br label %54, !llvm.loop !50

110:                                              ; preds = %54
  br label %111

111:                                              ; preds = %110, %32
  br label %112

112:                                              ; preds = %111
  %113 = load i32, ptr %6, align 4, !tbaa !8
  %114 = add nsw i32 %113, 1
  store i32 %114, ptr %6, align 4, !tbaa !8
  br label %14, !llvm.loop !51

115:                                              ; preds = %27
  call void @llvm.lifetime.end.p0(i64 4, ptr %8) #10
  call void @llvm.lifetime.end.p0(i64 4, ptr %7) #10
  call void @llvm.lifetime.end.p0(i64 4, ptr %6) #10
  call void @llvm.lifetime.end.p0(i64 8, ptr %5) #10
  ret void
}