; Function Attrs: nounwind uwtable
define void @If_LibBoxPrint(ptr noundef captures(none) %0, ptr noundef readonly captures(none) %1) local_unnamed_addr #5 {
  %3 = tail call ptr (...) @Extra_TimeStamp() #19
  %4 = tail call i32 (ptr, ptr, ...) @fprintf(ptr noundef %0, ptr noundef nonnull @.str.10, ptr noundef %3) #19
  %5 = tail call i64 @fwrite(ptr nonnull @.str.11, i64 29, i64 1, ptr %0)
  %6 = getelementptr inbounds nuw i8, ptr %1, i64 8
  %7 = load ptr, ptr %6, align 8, !tbaa !22
  %8 = getelementptr i8, ptr %7, i64 4
  %.val37 = load i32, ptr %8, align 4, !tbaa !18
  %9 = icmp sgt i32 %.val37, 0
  br i1 %9, label %.lr.ph40, label %.critedge

.lr.ph40:                                         ; preds = %2, %.loopexit
  %indvars.iv = phi i64 [ %indvars.iv.next, %.loopexit ], [ 0, %2 ]
  %10 = phi ptr [ %51, %.loopexit ], [ %7, %2 ]
  %11 = getelementptr i8, ptr %10, i64 8
  %.val34 = load ptr, ptr %11, align 8, !tbaa !21
  %12 = getelementptr inbounds nuw ptr, ptr %.val34, i64 %indvars.iv
  %13 = load ptr, ptr %12, align 8, !tbaa !25
  %14 = icmp eq ptr %13, null
  br i1 %14, label %.loopexit, label %15

15:                                               ; preds = %.lr.ph40
  %16 = load ptr, ptr %13, align 8, !tbaa !3
  %17 = getelementptr inbounds nuw i8, ptr %13, i64 12
  %18 = load i32, ptr %17, align 4, !tbaa !11
  %19 = getelementptr inbounds nuw i8, ptr %13, i64 9
  %20 = load i8, ptr %19, align 1, !tbaa !13
  %.not = icmp eq i8 %20, 0
  %21 = zext i1 %.not to i32
  %22 = getelementptr inbounds nuw i8, ptr %13, i64 16
  %23 = load i32, ptr %22, align 8, !tbaa !15
  %24 = getelementptr inbounds nuw i8, ptr %13, i64 20
  %25 = load i32, ptr %24, align 4, !tbaa !16
  %26 = tail call i32 (ptr, ptr, ...) @fprintf(ptr noundef %0, ptr noundef nonnull @.str.12, ptr noundef %16, i32 noundef %18, i32 noundef %21, i32 noundef %23, i32 noundef %25) #19
  %27 = load i32, ptr %24, align 4, !tbaa !16
  %28 = icmp sgt i32 %27, 0
  br i1 %28, label %.preheader.lr.ph, label %.loopexit

.preheader.lr.ph:                                 ; preds = %15
  %29 = getelementptr inbounds nuw i8, ptr %13, i64 24
  br label %.preheader

.preheader:                                       ; preds = %.preheader.lr.ph, %._crit_edge
  %.02936 = phi i32 [ 0, %.preheader.lr.ph ], [ %48, %._crit_edge ]
  %30 = load i32, ptr %22, align 8, !tbaa !15
  %31 = icmp sgt i32 %30, 0
  br i1 %31, label %.lr.ph, label %._crit_edge

.lr.ph:                                           ; preds = %.preheader, %44
  %32 = phi i32 [ %46, %44 ], [ %30, %.preheader ]
  %.035 = phi i32 [ %45, %44 ], [ 0, %.preheader ]
  %33 = load ptr, ptr %29, align 8, !tbaa !17
  %34 = mul nsw i32 %32, %.02936
  %35 = add nsw i32 %34, %.035
  %36 = sext i32 %35 to i64
  %37 = getelementptr inbounds i32, ptr %33, i64 %36
  %38 = load i32, ptr %37, align 4, !tbaa !34
  %39 = icmp eq i32 %38, -1000000000
  br i1 %39, label %40, label %42

40:                                               ; preds = %.lr.ph
  %41 = tail call i64 @fwrite(ptr nonnull @.str.13, i64 6, i64 1, ptr %0)
  br label %44

42:                                               ; preds = %.lr.ph
  %43 = tail call i32 (ptr, ptr, ...) @fprintf(ptr noundef %0, ptr noundef nonnull @.str.14, i32 noundef %38) #19
  br label %44

44:                                               ; preds = %40, %42
  %45 = add nuw nsw i32 %.035, 1
  %46 = load i32, ptr %22, align 8, !tbaa !15
  %47 = icmp slt i32 %45, %46
  br i1 %47, label %.lr.ph, label %._crit_edge, !llvm.loop !42

._crit_edge:                                      ; preds = %44, %.preheader
  %48 = add nuw nsw i32 %.02936, 1
  %putchar = tail call i32 @putchar(i32 10)
  %49 = load i32, ptr %24, align 4, !tbaa !16
  %50 = icmp slt i32 %48, %49
  br i1 %50, label %.preheader, label %.loopexit, !llvm.loop !43

.loopexit:                                        ; preds = %._crit_edge, %15, %.lr.ph40
  %indvars.iv.next = add nuw nsw i64 %indvars.iv, 1
  %51 = load ptr, ptr %6, align 8, !tbaa !22
  %52 = getelementptr i8, ptr %51, i64 4
  %.val = load i32, ptr %52, align 4, !tbaa !18
  %53 = sext i32 %.val to i64
  %54 = icmp slt i64 %indvars.iv.next, %53
  br i1 %54, label %.lr.ph40, label %.critedge, !llvm.loop !44

.critedge:                                        ; preds = %.loopexit, %2
  ret void
}